; Function Attrs: nounwind uwtable
define noalias noundef ptr @Abc_SclFindCriticalCoWindow(ptr noundef readonly captures(none) %0, i32 noundef %1) local_unnamed_addr #0 {
  %3 = getelementptr inbounds nuw i8, ptr %0, i64 8
  %4 = load ptr, ptr %3, align 8, !tbaa !48
  %5 = getelementptr inbounds nuw i8, ptr %0, i64 112
  %6 = load ptr, ptr %5, align 8, !tbaa !58
  %7 = getelementptr i8, ptr %6, i64 4
  %.val.i.i = load i32, ptr %7, align 4, !tbaa !59
  %8 = icmp sgt i32 %.val.i.i, 1
  br i1 %8, label %9, label %Abc_SclReadMaxDelay.exit

9:                                                ; preds = %2
  %10 = getelementptr inbounds nuw i8, ptr %6, i64 8
  %11 = load ptr, ptr %10, align 8, !tbaa !62
  %12 = getelementptr inbounds nuw i8, ptr %11, i64 4
  %13 = load i32, ptr %12, align 4, !tbaa !31
  %14 = sext i32 %13 to i64
  br label %Abc_SclReadMaxDelay.exit

Abc_SclReadMaxDelay.exit:                         ; preds = %2, %9
  %15 = phi i64 [ %14, %9 ], [ -1, %2 ]
  %16 = getelementptr i8, ptr %4, i64 64
  %.val.i = load ptr, ptr %16, align 8, !tbaa !63
  %17 = getelementptr i8, ptr %.val.i, i64 8
  %.val.val.i = load ptr, ptr %17, align 8, !tbaa !35
  %18 = getelementptr inbounds ptr, ptr %.val.val.i, i64 %15
  %19 = load ptr, ptr %18, align 8, !tbaa !37
  %20 = getelementptr i8, ptr %0, i64 80
  %.val3.i = load ptr, ptr %20, align 8, !tbaa !64
  %21 = getelementptr i8, ptr %19, i64 16
  %.val4.i = load i32, ptr %21, align 8, !tbaa !13
  %22 = zext i32 %.val4.i to i64
  %23 = getelementptr inbounds nuw %struct.SC_Pair_, ptr %.val3.i, i64 %22
  %24 = load float, ptr %23, align 4, !tbaa !65
  %25 = getelementptr inbounds nuw i8, ptr %23, i64 4
  %26 = load float, ptr %25, align 4, !tbaa !67
  %27 = fcmp ogt float %24, %26
  %28 = select i1 %27, float %24, float %26
  %29 = fpext float %28 to double
  %30 = sitofp i32 %1 to double
  %31 = fsub double 1.000000e+02, %30
  %32 = fmul double %31, %29
  %33 = fdiv double %32, 1.000000e+02
  %34 = fptrunc double %33 to float
  %35 = tail call noalias dereferenceable_or_null(16) ptr @malloc(i64 noundef 16) #26
  %36 = getelementptr inbounds nuw i8, ptr %35, i64 4
  store i32 0, ptr %36, align 4, !tbaa !28
  store i32 100, ptr %35, align 8, !tbaa !29
  %37 = tail call noalias dereferenceable_or_null(400) ptr @malloc(i64 noundef 400) #26
  %38 = getelementptr inbounds nuw i8, ptr %35, i64 8
  store ptr %37, ptr %38, align 8, !tbaa !30
  %39 = getelementptr i8, ptr %.val.i, i64 4
  %.val15.val17 = load i32, ptr %39, align 4, !tbaa !42
  %40 = icmp sgt i32 %.val15.val17, 0
  br i1 %40, label %.lr.ph, label %.critedge

.lr.ph:                                           ; preds = %Abc_SclReadMaxDelay.exit, %77
  %41 = phi ptr [ %78, %77 ], [ %4, %Abc_SclReadMaxDelay.exit ]
  %42 = phi ptr [ %.pre.i22, %77 ], [ %37, %Abc_SclReadMaxDelay.exit ]
  %indvars.iv = phi i64 [ %indvars.iv.next, %77 ], [ 0, %Abc_SclReadMaxDelay.exit ]
  %.val1519 = phi ptr [ %.val15, %77 ], [ %.val.i, %Abc_SclReadMaxDelay.exit ]
  %43 = getelementptr i8, ptr %.val1519, i64 8
  %.val12.val = load ptr, ptr %43, align 8, !tbaa !35
  %44 = getelementptr inbounds nuw ptr, ptr %.val12.val, i64 %indvars.iv
  %45 = load ptr, ptr %44, align 8, !tbaa !37
  %.val13 = load ptr, ptr %20, align 8, !tbaa !64
  %46 = getelementptr i8, ptr %45, i64 16
  %.val14 = load i32, ptr %46, align 8, !tbaa !13
  %47 = zext i32 %.val14 to i64
  %48 = getelementptr inbounds nuw %struct.SC_Pair_, ptr %.val13, i64 %47
  %49 = load float, ptr %48, align 4, !tbaa !65
  %50 = getelementptr inbounds nuw i8, ptr %48, i64 4
  %51 = load float, ptr %50, align 4, !tbaa !67
  %52 = fcmp ogt float %49, %51
  %53 = select i1 %52, float %49, float %51
  %54 = fcmp ult float %53, %34
  br i1 %54, label %77, label %55

55:                                               ; preds = %.lr.ph
  %56 = load i32, ptr %36, align 4, !tbaa !28
  %57 = load i32, ptr %35, align 8, !tbaa !29
  %58 = icmp eq i32 %56, %57
  br i1 %58, label %59, label %Vec_IntPush.exit

59:                                               ; preds = %55
  %60 = icmp slt i32 %56, 16
  br i1 %60, label %61, label %66

61:                                               ; preds = %59
  %.not9.i.i = icmp eq ptr %42, null
  br i1 %.not9.i.i, label %64, label %62

62:                                               ; preds = %61
  %63 = tail call dereferenceable_or_null(64) ptr @realloc(ptr noundef nonnull %42, i64 noundef 64) #25
  br label %Vec_IntPush.exit.sink.split

64:                                               ; preds = %61
  %65 = tail call noalias dereferenceable_or_null(64) ptr @malloc(i64 noundef 64) #26
  br label %Vec_IntPush.exit.sink.split

66:                                               ; preds = %59
  %67 = shl nuw nsw i32 %56, 1
  %.not9.i9.i = icmp eq ptr %42, null
  %68 = zext nneg i32 %67 to i64
  %69 = shl nuw nsw i64 %68, 2
  br i1 %.not9.i9.i, label %72, label %70

70:                                               ; preds = %66
  %71 = tail call ptr @realloc(ptr noundef nonnull %42, i64 noundef %69) #25
  br label %Vec_IntPush.exit.sink.split

72:                                               ; preds = %66
  %73 = tail call noalias ptr @malloc(i64 noundef %69) #26
  br label %Vec_IntPush.exit.sink.split

Vec_IntPush.exit.sink.split:                      ; preds = %70, %72, %62, %64
  %.sink24 = phi ptr [ %63, %62 ], [ %65, %64 ], [ %71, %70 ], [ %73, %72 ]
  %.sink = phi i32 [ 16, %62 ], [ 16, %64 ], [ %67, %70 ], [ %67, %72 ]
  store ptr %.sink24, ptr %38, align 8, !tbaa !30
  store i32 %.sink, ptr %35, align 8, !tbaa !29
  br label %Vec_IntPush.exit

Vec_IntPush.exit:                                 ; preds = %Vec_IntPush.exit.sink.split, %55
  %.pre.i23 = phi ptr [ %42, %55 ], [ %.sink24, %Vec_IntPush.exit.sink.split ]
  %74 = add nsw i32 %56, 1
  store i32 %74, ptr %36, align 4, !tbaa !28
  %75 = sext i32 %56 to i64
  %76 = getelementptr inbounds i32, ptr %.pre.i23, i64 %75
  store i32 %.val14, ptr %76, align 4, !tbaa !31
  %.pre = load ptr, ptr %3, align 8, !tbaa !48
  br label %77

77:                                               ; preds = %.lr.ph, %Vec_IntPush.exit
  %78 = phi ptr [ %41, %.lr.ph ], [ %.pre, %Vec_IntPush.exit ]
  %.pre.i22 = phi ptr [ %42, %.lr.ph ], [ %.pre.i23, %Vec_IntPush.exit ]
  %indvars.iv.next = add nuw nsw i64 %indvars.iv, 1
  %79 = getelementptr i8, ptr %78, i64 64
  %.val15 = load ptr, ptr %79, align 8, !tbaa !63
  %80 = getelementptr i8, ptr %.val15, i64 4
  %.val15.val = load i32, ptr %80, align 4, !tbaa !42
  %81 = sext i32 %.val15.val to i64
  %82 = icmp slt i64 %indvars.iv.next, %81
  br i1 %82, label %.lr.ph, label %.critedge, !llvm.loop !68

.critedge:                                        ; preds = %77, %Abc_SclReadMaxDelay.exit
  ret ptr %35
}